; Function Attrs: mustprogress uwtable
define noundef ptr @_ZN18OpenImageIO_v2_6_019default_thread_poolEv() local_unnamed_addr #4 personality ptr @__gxx_personality_v0 {
entry:
  %0 = load atomic i8, ptr @_ZGVZN18OpenImageIO_v2_6_019default_thread_poolEvE11shared_pool acquire, align 8
  %guard.uninitialized = icmp eq i8 %0, 0
  br i1 %guard.uninitialized, label %init.check, label %init.end, !prof !61

init.check:                                       ; preds = %entry
  %1 = tail call i32 @__cxa_guard_acquire(ptr nonnull @_ZGVZN18OpenImageIO_v2_6_019default_thread_poolEvE11shared_pool) #20
  %tobool.not = icmp eq i32 %1, 0
  br i1 %tobool.not, label %init.end, label %init

init:                                             ; preds = %init.check
  %call = invoke noalias noundef nonnull dereferenceable(8) ptr @_Znwm(i64 noundef 8) #26
          to label %invoke.cont unwind label %lpad

invoke.cont:                                      ; preds = %init
  invoke void @_ZN18OpenImageIO_v2_6_011thread_poolC1Ei(ptr noundef nonnull align 8 dereferenceable(8) %call, i32 noundef -1)
          to label %invoke.cont2 unwind label %lpad1

invoke.cont2:                                     ; preds = %invoke.cont
  store ptr %call, ptr @_ZZN18OpenImageIO_v2_6_019default_thread_poolEvE11shared_pool, align 8
  %2 = tail call i32 @__cxa_atexit(ptr nonnull @_ZNSt10unique_ptrIN18OpenImageIO_v2_6_011thread_poolESt14default_deleteIS1_EED2Ev, ptr nonnull @_ZZN18OpenImageIO_v2_6_019default_thread_poolEvE11shared_pool, ptr nonnull @__dso_handle) #20
  tail call void @__cxa_guard_release(ptr nonnull @_ZGVZN18OpenImageIO_v2_6_019default_thread_poolEvE11shared_pool) #20
  br label %init.end

init.end:                                         ; preds = %invoke.cont2, %init.check, %entry
  store atomic i32 1, ptr @_ZN18OpenImageIO_v2_6_0L27default_thread_pool_createdE.0 seq_cst, align 4
  %3 = load ptr, ptr @_ZZN18OpenImageIO_v2_6_019default_thread_poolEvE11shared_pool, align 8
  ret ptr %3

lpad:                                             ; preds = %init
  %4 = landingpad { ptr, i32 }
          cleanup
  br label %ehcleanup

lpad1:                                            ; preds = %invoke.cont
  %5 = landingpad { ptr, i32 }
          cleanup
  tail call void @_ZdlPv(ptr noundef nonnull %call) #27
  br label %ehcleanup

ehcleanup:                                        ; preds = %lpad1, %lpad
  %.pn = phi { ptr, i32 } [ %5, %lpad1 ], [ %4, %lpad ]
  tail call void @__cxa_guard_abort(ptr nonnull @_ZGVZN18OpenImageIO_v2_6_019default_thread_poolEvE11shared_pool) #20
  resume { ptr, i32 } %.pn
}